target datalayout = "e-m:e-p270:32:32-p271:32:32-p272:64:64-i64:64-i128:128-f80:128-n8:16:32:64-S128"
target triple = "x86_64-pc-linux-gnu"

@ff_vvc_inter_luma_dmvr_filters = external constant [16 x [2 x i8]], align 16

; Function Attrs: nounwind uwtable
define internal void @dmvr_h_10(ptr noundef %0, ptr noundef %1, i64 noundef %2, i32 noundef %3, i64 noundef %4, i64 noundef %5, i32 noundef %6) #0 {
  %8 = alloca ptr, align 8
  %9 = alloca ptr, align 8
  %10 = alloca i64, align 8
  %11 = alloca i32, align 4
  %12 = alloca i64, align 8
  %13 = alloca i64, align 8
  %14 = alloca i32, align 4
  %15 = alloca ptr, align 8
  %16 = alloca i64, align 8
  %17 = alloca ptr, align 8
  %18 = alloca i32, align 4
  %19 = alloca i32, align 4
  %20 = alloca i32, align 4
  %21 = alloca i32, align 4
  %22 = alloca i32, align 4
  store ptr %0, ptr %8, align 8, !tbaa !142
  store ptr %1, ptr %9, align 8, !tbaa !144
  store i64 %2, ptr %10, align 8, !tbaa !146
  store i32 %3, ptr %11, align 4, !tbaa !9
  store i64 %4, ptr %12, align 8, !tbaa !146
  store i64 %5, ptr %13, align 8, !tbaa !146
  store i32 %6, ptr %14, align 4, !tbaa !9
  call void @llvm.lifetime.start.p0(i64 8, ptr %15) #8
  %23 = load ptr, ptr %9, align 8, !tbaa !144
  store ptr %23, ptr %15, align 8, !tbaa !142
  call void @llvm.lifetime.start.p0(i64 8, ptr %16) #8
  %24 = load i64, ptr %10, align 8, !tbaa !146
  %25 = udiv i64 %24, 2
  store i64 %25, ptr %16, align 8, !tbaa !146
  call void @llvm.lifetime.start.p0(i64 8, ptr %17) #8
  %26 = load i64, ptr %12, align 8, !tbaa !146
  %27 = getelementptr inbounds [16 x [2 x i8]], ptr @ff_vvc_inter_luma_dmvr_filters, i64 0, i64 %26
  %28 = getelementptr inbounds [2 x i8], ptr %27, i64 0, i64 0
  store ptr %28, ptr %17, align 8, !tbaa !144
  call void @llvm.lifetime.start.p0(i64 4, ptr %18) #8
  store i32 4, ptr %18, align 4, !tbaa !9
  call void @llvm.lifetime.start.p0(i64 4, ptr %19) #8
  store i32 8, ptr %19, align 4, !tbaa !9
  call void @llvm.lifetime.start.p0(i64 4, ptr %20) #8
  store i32 0, ptr %20, align 4, !tbaa !9
  br label %29

29:                                               ; preds = %81, %7
  %30 = load i32, ptr %20, align 4, !tbaa !9
  %31 = load i32, ptr %11, align 4, !tbaa !9
  %32 = icmp slt i32 %30, %31
  br i1 %32, label %34, label %33

33:                                               ; preds = %29
  store i32 2, ptr %21, align 4
  call void @llvm.lifetime.end.p0(i64 4, ptr %20) #8
  br label %84

34:                                               ; preds = %29
  call void @llvm.lifetime.start.p0(i64 4, ptr %22) #8
  store i32 0, ptr %22, align 4, !tbaa !9
  br label %35

35:                                               ; preds = %72, %34
  %36 = load i32, ptr %22, align 4, !tbaa !9
  %37 = load i32, ptr %14, align 4, !tbaa !9
  %38 = icmp slt i32 %36, %37
  br i1 %38, label %40, label %39

39:                                               ; preds = %35
  store i32 5, ptr %21, align 4
  call void @llvm.lifetime.end.p0(i64 4, ptr %22) #8
  br label %75

40:                                               ; preds = %35
  %41 = load ptr, ptr %17, align 8, !tbaa !144
  %42 = getelementptr inbounds i8, ptr %41, i64 0
  %43 = load i8, ptr %42, align 1, !tbaa !152
  %44 = sext i8 %43 to i32
  %45 = load ptr, ptr %15, align 8, !tbaa !142
  %46 = load i32, ptr %22, align 4, !tbaa !9
  %47 = sext i32 %46 to i64
  %48 = getelementptr inbounds i16, ptr %45, i64 %47
  %49 = load i16, ptr %48, align 2, !tbaa !148
  %50 = zext i16 %49 to i32
  %51 = mul nsw i32 %44, %50
  %52 = load ptr, ptr %17, align 8, !tbaa !144
  %53 = getelementptr inbounds i8, ptr %52, i64 1
  %54 = load i8, ptr %53, align 1, !tbaa !152
  %55 = sext i8 %54 to i32
  %56 = load ptr, ptr %15, align 8, !tbaa !142
  %57 = load i32, ptr %22, align 4, !tbaa !9
  %58 = add nsw i32 %57, 1
  %59 = sext i32 %58 to i64
  %60 = getelementptr inbounds i16, ptr %56, i64 %59
  %61 = load i16, ptr %60, align 2, !tbaa !148
  %62 = zext i16 %61 to i32
  %63 = mul nsw i32 %55, %62
  %64 = add nsw i32 %51, %63
  %65 = add nsw i32 %64, 8
  %66 = ashr i32 %65, 4
  %67 = trunc i32 %66 to i16
  %68 = load ptr, ptr %8, align 8, !tbaa !142
  %69 = load i32, ptr %22, align 4, !tbaa !9
  %70 = sext i32 %69 to i64
  %71 = getelementptr inbounds i16, ptr %68, i64 %70
  store i16 %67, ptr %71, align 2, !tbaa !148
  br label %72

72:                                               ; preds = %40
  %73 = load i32, ptr %22, align 4, !tbaa !9
  %74 = add nsw i32 %73, 1
  store i32 %74, ptr %22, align 4, !tbaa !9
  br label %35, !llvm.loop !534

75:                                               ; preds = %39
  %76 = load i64, ptr %16, align 8, !tbaa !146
  %77 = load ptr, ptr %15, align 8, !tbaa !142
  %78 = getelementptr inbounds i16, ptr %77, i64 %76
  store ptr %78, ptr %15, align 8, !tbaa !142
  %79 = load ptr, ptr %8, align 8, !tbaa !142
  %80 = getelementptr inbounds i16, ptr %79, i64 128
  store ptr %80, ptr %8, align 8, !tbaa !142
  br label %81

81:                                               ; preds = %75
  %82 = load i32, ptr %20, align 4, !tbaa !9
  %83 = add nsw i32 %82, 1
  store i32 %83, ptr %20, align 4, !tbaa !9
  br label %29, !llvm.loop !535

84:                                               ; preds = %33
  call void @llvm.lifetime.end.p0(i64 4, ptr %19) #8
  call void @llvm.lifetime.end.p0(i64 4, ptr %18) #8
  call void @llvm.lifetime.end.p0(i64 8, ptr %17) #8
  call void @llvm.lifetime.end.p0(i64 8, ptr %16) #8
  call void @llvm.lifetime.end.p0(i64 8, ptr %15) #8
  ret void
}