; Function Attrs: nofree norecurse nosync nounwind memory(argmem: readwrite) uwtable
define internal void @dmvr_h_10(ptr noundef writeonly captures(none) %0, ptr noundef readonly captures(none) %1, i64 noundef %2, i32 noundef %3, i64 noundef %4, i64 %5, i32 noundef %6) #2 {
  %8 = lshr i64 %2, 1
  %9 = icmp sgt i32 %3, 0
  %10 = icmp sgt i32 %6, 0
  %or.cond = and i1 %9, %10
  br i1 %or.cond, label %.preheader.lr.ph.split.us, label %._crit_edge26

.preheader.lr.ph.split.us:                        ; preds = %7
  %11 = getelementptr inbounds [16 x [2 x i8]], ptr @ff_vvc_inter_luma_dmvr_filters, i64 0, i64 %4
  %12 = getelementptr inbounds nuw i8, ptr %11, i64 1
  %13 = load i8, ptr %11, align 2, !tbaa !128
  %14 = sext i8 %13 to i32
  %15 = load i8, ptr %12, align 1, !tbaa !128
  %16 = sext i8 %15 to i32
  %wide.trip.count = zext nneg i32 %6 to i64
  br label %.preheader.us

.preheader.us:                                    ; preds = %._crit_edge.us, %.preheader.lr.ph.split.us
  %.01925.us = phi i32 [ 0, %.preheader.lr.ph.split.us ], [ %33, %._crit_edge.us ]
  %.02024.us = phi ptr [ %0, %.preheader.lr.ph.split.us ], [ %32, %._crit_edge.us ]
  %.02123.us = phi ptr [ %1, %.preheader.lr.ph.split.us ], [ %31, %._crit_edge.us ]
  br label %17

17:                                               ; preds = %.preheader.us, %17
  %indvars.iv = phi i64 [ 0, %.preheader.us ], [ %indvars.iv.next, %17 ]
  %18 = getelementptr inbounds nuw i16, ptr %.02123.us, i64 %indvars.iv
  %19 = load i16, ptr %18, align 2, !tbaa !124
  %20 = zext i16 %19 to i32
  %21 = mul nsw i32 %20, %14
  %indvars.iv.next = add nuw nsw i64 %indvars.iv, 1
  %22 = getelementptr inbounds nuw i16, ptr %.02123.us, i64 %indvars.iv.next
  %23 = load i16, ptr %22, align 2, !tbaa !124
  %24 = zext i16 %23 to i32
  %25 = mul nsw i32 %24, %16
  %26 = add nsw i32 %21, 8
  %27 = add nsw i32 %26, %25
  %28 = lshr i32 %27, 4
  %29 = trunc i32 %28 to i16
  %30 = getelementptr inbounds nuw i16, ptr %.02024.us, i64 %indvars.iv
  store i16 %29, ptr %30, align 2, !tbaa !124
  %exitcond.not = icmp eq i64 %indvars.iv.next, %wide.trip.count
  br i1 %exitcond.not, label %._crit_edge.us, label %17, !llvm.loop !507

._crit_edge.us:                                   ; preds = %17
  %31 = getelementptr inbounds nuw i16, ptr %.02123.us, i64 %8
  %32 = getelementptr inbounds nuw i8, ptr %.02024.us, i64 256
  %33 = add nuw nsw i32 %.01925.us, 1
  %exitcond29.not = icmp eq i32 %33, %3
  br i1 %exitcond29.not, label %._crit_edge26, label %.preheader.us, !llvm.loop !508

._crit_edge26:                                    ; preds = %._crit_edge.us, %7
  ret void
}